(dp1
V 
I6
sS'('
I60
sV,
I27
sV0
I29
sV4
I50
sV8
I42
sS'<'
I70
sV@
I85
sVD
I28
sS'H'
I56
sVL
I43
sVP
I45
sS'T'
I57
sVX
I72
sV\u005c
I77
sV`
I86
sVd
I26
sVh
I2
sVl
I11
sVp
I32
sVt
I15
sS'x'
I63
sV|
I76
sV#
I89
sV'
I64
sS'/'
I62
sV3
I38
sV7
I41
sV;
I74
sV?
I84
sS'C'
I46
sS'G'
I21
sVK
I40
sVO
I61
sS'S'
I16
sVW
I55
sV[
I88
sV_
I79
sVc
I20
sVg
I5
sVk
I34
sVo
I23
sVs
I8
sVw
I24
sV{
I82
sV"
I78
sV&
I73
sS'*'
I81
sV.
I30
sV2
I48
sV6
I47
sV:
I80
sS'>'
I71
sVB
I51
sVF
I25
sVJ
I31
sVN
I12
sVR
I49
sS'V'
I58
sVZ
I1
sVb
I14
sVf
I33
sS'j'
I65
sVn
I4
sS'r'
I18
sS'v'
I17
sVz
I52
sS'<pad>'
p2
I0
sS'!'
I83
sS')'
I69
sV-
I35
sV1
I36
sV5
I39
sV9
I37
sS'='
I75
sVA
I19
sVE
I59
sVI
I7
sVM
I22
sS'Q'
I67
sVU
I53
sVY
I66
sVa
I10
sVe
I3
sVi
I13
sVm
I9
sVq
I68
sVu
I44
sVy
I54
sS'}'
I87
s.