(dp1
crdflib.term
URIRef
p2
(Vhttp://dbpedia.org/ontology/militaryUnit
tRp3
I91
sg2
(Vhttp://dbpedia.org/ontology/picture
tRp4
I112
sg2
(Vhttp://dbpedia.org/ontology/canonizedPlace
tRp5
I221
sg2
(Vhttp://yago-knowledge.org/resource/hasWikipediaUrl
tRp6
I10
sg2
(Vhttp://dbpedia.org/ontology/choreographer
tRp7
I153
sg2
(Vhttp://dbpedia.org/ontology/birthName
tRp8
I51
sg2
(Vhttp://dbpedia.org/ontology/parish
tRp9
I222
sg2
(Vhttp://dbpedia.org/ontology/distanceToLondon
tRp10
I81
sg2
(Vhttp://dbpedia.org/ontology/allegiance
tRp11
I162
sg2
(Vhttp://dbpedia.org/ontology/isPartOf
tRp12
I23
sg2
(Vhttp://dbpedia.org/ontology/alias
tRp13
I8
sg2
(Vhttp://dbpedia.org/ontology/bnfId
tRp14
I121
sg2
(Vhttp://dbpedia.org/ontology/selibrId
tRp15
I141
sg2
(Vhttp://www.w3.org/2003/01/geo/wgs84_pos#lat
tRp16
I28
sg2
(Vhttp://dbpedia.org/ontology/recordLabel
tRp17
I130
sg2
(Vhttp://dbpedia.org/ontology/mainInterest
tRp18
I123
sg2
(Vhttp://dbpedia.org/ontology/governor
tRp19
I209
sg2
(Vhttp://dbpedia.org/ontology/twinCountry
tRp20
I44
sg2
(Vhttp://dbpedia.org/ontology/plays
tRp21
I158
sg2
(Vhttp://dbpedia.org/ontology/foundingPerson
tRp22
I43
sg2
(Vhttp://dbpedia.org/ontology/populationMetroDensity
tRp23
I111
sg2
(Vhttp://dbpedia.org/ontology/number
tRp24
I25
sg2
(Vhttp://dbpedia.org/ontology/knownFor
tRp25
I71
sg2
(Vhttp://dbpedia.org/ontology/isniId
tRp26
I205
sg2
(Vhttp://dbpedia.org/ontology/distanceToEdinburgh
tRp27
I177
sg2
(Vhttp://dbpedia.org/ontology/demonym
tRp28
I168
sg2
(Vhttp://dbpedia.org/ontology/currentPartner
tRp29
I174
sg2
(Vhttp://dbpedia.org/ontology/weight
tRp30
I57
sg2
(Vhttp://dbpedia.org/ontology/veneratedIn
tRp31
I143
sg2
(Vhttp://dbpedia.org/ontology/formerPartner
tRp32
I109
sg2
(Vhttp://dbpedia.org/ontology/termPeriod
tRp33
I42
sg2
(Vhttp://dbpedia.org/ontology/college
tRp34
I89
sg2
(Vhttp://dbpedia.org/ontology/voiceType
tRp35
I197
sg2
(Vhttp://xmlns.com/foaf/0.1/givenName
tRp36
I2
sg2
(Vhttp://dbpedia.org/ontology/activeYearsEndYear
tRp37
I38
sg2
(Vhttp://dbpedia.org/ontology/PopulatedPlace/populationMetroDensity
tRp38
I169
sg2
(Vhttp://dbpedia.org/ontology/era
tRp39
I165
sg2
(Vhttp://yago-knowledge.org/resource/dealsWith
tRp40
I229
sg2
(Vhttp://yago-knowledge.org/resource/wroteMusicFor
tRp41
I161
sg2
(Vhttp://dbpedia.org/ontology/successor
tRp42
I113
sg2
(Vhttp://dbpedia.org/ontology/hometown
tRp43
I92
sg2
(Vhttp://dbpedia.org/ontology/restingPlace
tRp44
I104
sg2
(Vhttp://dbpedia.org/ontology/profession
tRp45
I156
sg2
(Vhttp://dbpedia.org/ontology/Person/weight
tRp46
I35
sg2
(Vhttp://dbpedia.org/ontology/religion
tRp47
I50
sg2
(Vhttp://dbpedia.org/ontology/careerPrizeMoney
tRp48
I142
sg2
(Vhttp://dbpedia.org/ontology/viafId
tRp49
I33
sg2
(Vhttp://yago-knowledge.org/resource/actedIn
tRp50
I63
sS'<NONE>'
p51
I0
sg2
(Vhttp://dbpedia.org/ontology/residence
tRp52
I87
sg2
(Vhttp://dbpedia.org/ontology/board
tRp53
I170
sg2
(Vhttp://dbpedia.org/ontology/notableWork
tRp54
I86
sg2
(Vhttp://dbpedia.org/ontology/draftYear
tRp55
I227
sg2
(Vhttp://dbpedia.org/ontology/areaRural
tRp56
I164
sg2
(Vhttp://dbpedia.org/ontology/philosophicalSchool
tRp57
I76
sg2
(Vhttp://dbpedia.org/ontology/birthYear
tRp58
I12
sg2
(Vhttp://dbpedia.org/ontology/nationality
tRp59
I46
sg2
(Vhttp://dbpedia.org/ontology/predecessor
tRp60
I136
sg2
(Vhttp://dbpedia.org/ontology/draftPick
tRp61
I218
sg2
(Vhttp://dbpedia.org/ontology/country
tRp62
I32
sg2
(Vhttp://dbpedia.org/ontology/formerChoreographer
tRp63
I226
sg2
(Vhttp://dbpedia.org/ontology/militaryCommand
tRp64
I152
sg2
(Vhttp://dbpedia.org/ontology/league
tRp65
I180
sg2
(Vhttp://dbpedia.org/ontology/activeYearsStartYear
tRp66
I82
sg2
(Vhttp://yago-knowledge.org/resource/holdsPoliticalPosition
tRp67
I159
sg2
(Vhttp://www.w3.org/2003/01/geo/wgs84_pos#long
tRp68
I19
sg2
(Vhttp://dbpedia.org/ontology/distanceToCardiff
tRp69
I217
sg2
(Vhttp://dbpedia.org/ontology/openingYear
tRp70
I175
sg2
(Vhttp://dbpedia.org/ontology/billed
tRp71
I200
sg2
(Vhttp://dbpedia.org/ontology/areaMetro
tRp72
I119
sg2
(Vhttp://xmlns.com/foaf/0.1/gender
tRp73
I6
sg2
(Vhttp://dbpedia.org/ontology/nlaId
tRp74
I210
sg2
(Vhttp://dbpedia.org/ontology/sheading
tRp75
I187
sg2
(Vhttp://purl.org/dc/elements/1.1/description
tRp76
I5
sg2
(Vhttp://dbpedia.org/ontology/individualisedGnd
tRp77
I73
sg2
(Vhttp://dbpedia.org/ontology/isoCodeRegion
tRp78
I31
sg2
(Vhttp://dbpedia.org/ontology/background
tRp79
I108
sg2
(Vhttp://yago-knowledge.org/resource/hasWikipediaArticleLength
tRp80
I16
sg2
(Vhttp://yago-knowledge.org/resource/hasWonPrize
tRp81
I41
sg2
(Vhttp://dbpedia.org/ontology/officialLanguage
tRp82
I58
sg2
(Vhttp://dbpedia.org/ontology/locatedInArea
tRp83
I220
sg2
(Vhttp://dbpedia.org/ontology/genre
tRp84
I30
sg2
(Vhttp://dbpedia.org/ontology/coach
tRp85
I203
sg2
(Vhttp://dbpedia.org/ontology/citizenship
tRp86
I122
sg2
(Vhttp://dbpedia.org/ontology/statisticValue
tRp87
I192
sg2
(Vhttp://dbpedia.org/ontology/anthem
tRp88
I67
sg2
(Vhttp://dbpedia.org/ontology/birthPlace
tRp89
I4
sg2
(Vhttp://dbpedia.org/ontology/numberOfFilms
tRp90
I167
sg2
(Vhttp://yago-knowledge.org/resource/exports
tRp91
I163
sg2
(Vhttp://dbpedia.org/ontology/influenced
tRp92
I64
sg2
(Vhttp://dbpedia.org/ontology/training
tRp93
I155
sg2
(Vhttp://www.w3.org/2004/02/skos/core#exactMatch
tRp94
I60
sg2
(Vhttp://dbpedia.org/ontology/lastAppearance
tRp95
I166
sg2
(Vhttp://dbpedia.org/ontology/notableIdea
tRp96
I148
sg2
(Vhttp://dbpedia.org/ontology/stateOfOrigin
tRp97
I54
sg2
(Vhttp://dbpedia.org/ontology/lccnId
tRp98
I79
sg2
(Vhttp://dbpedia.org/ontology/movement
tRp99
I95
sg2
(Vhttp://dbpedia.org/ontology/county
tRp100
I106
sg2
(Vhttp://yago-knowledge.org/resource/hasWeight
tRp101
I74
sg2
(Vhttp://dbpedia.org/ontology/club
tRp102
I103
sg2
(Vhttp://dbpedia.org/ontology/managerClub
tRp103
I24
sg2
(Vhttp://dbpedia.org/ontology/borough
tRp104
I145
sg2
(Vhttp://dbpedia.org/ontology/hairColor
tRp105
I118
sg2
(Vhttp://dbpedia.org/ontology/party
tRp106
I84
sg2
(Vhttp://yago-knowledge.org/resource/hasMusicalRole
tRp107
I75
sg2
(Vhttp://dbpedia.org/ontology/deathPlace
tRp108
I34
sg2
(Vhttp://yago-knowledge.org/resource/hasGeonamesEntityId
tRp109
I78
sg2
(Vhttp://dbpedia.org/ontology/formerTeam
tRp110
I56
sg2
(Vhttp://dbpedia.org/ontology/draft
tRp111
I214
sg2
(Vhttp://dbpedia.org/ontology/trainer
tRp112
I198
sg2
(Vhttp://dbpedia.org/ontology/birthDate
tRp113
I14
sg2
(Vhttp://dbpedia.org/ontology/partner
tRp114
I132
sg2
(Vhttp://dbpedia.org/ontology/populationTotal
tRp115
I26
sg2
(Vhttp://dbpedia.org/ontology/undraftedYear
tRp116
I207
sg2
(Vhttp://dbpedia.org/ontology/capital
tRp117
I70
sg2
(Vhttp://dbpedia.org/ontology/academicAdvisor
tRp118
I202
sg2
(Vhttp://dbpedia.org/ontology/pseudonym
tRp119
I126
sg2
(Vhttp://dbpedia.org/ontology/Infrastructure/length
tRp120
I178
sg2
(Vhttp://dbpedia.org/ontology/school
tRp121
I77
sg2
(Vhttp://dbpedia.org/ontology/ethnicGroup
tRp122
I61
sg2
(Vhttp://dbpedia.org/ontology/statisticLabel
tRp123
I150
sg2
(Vhttp://dbpedia.org/ontology/area
tRp124
I27
sg2
(Vhttp://dbpedia.org/ontology/education
tRp125
I94
sg2
(Vhttp://dbpedia.org/ontology/relative
tRp126
I128
sg2
(Vhttp://dbpedia.org/ontology/deathCause
tRp127
I157
sg2
(Vhttp://dbpedia.org/ontology/majorShrine
tRp128
I215
sg2
(Vhttp://dbpedia.org/ontology/parent
tRp129
I72
sg2
(Vhttp://dbpedia.org/ontology/employer
tRp130
I97
sg2
(Vhttp://dbpedia.org/ontology/principalArea
tRp131
I100
sg2
(Vhttp://dbpedia.org/ontology/associatedMusicalArtist
tRp132
I129
sg2
(Vhttp://dbpedia.org/ontology/activeYearsEndDate
tRp133
I125
sg2
(Vhttp://yago-knowledge.org/resource/hasTLD
tRp134
I172
sg2
(Vhttp://www.w3.org/2004/02/skos/core#prefLabel
tRp135
I18
sg2
(Vhttp://dbpedia.org/ontology/networth
tRp136
I185
sg2
(Vhttp://dbpedia.org/ontology/soundRecording
tRp137
I96
sg2
(Vhttp://dbpedia.org/ontology/currency
tRp138
I62
sg2
(Vhttp://dbpedia.org/ontology/series
tRp139
I127
sg2
(Vhttp://dbpedia.org/ontology/longName
tRp140
I66
sg2
(Vhttp://dbpedia.org/ontology/serviceEndYear
tRp141
I219
sg2
(Vhttp://dbpedia.org/ontology/councilArea
tRp142
I90
sg2
(Vhttp://dbpedia.org/ontology/spouse
tRp143
I37
sg2
(Vhttp://dbpedia.org/ontology/buildingStartDate
tRp144
I223
sg2
(Vhttp://dbpedia.org/ontology/instrument
tRp145
I102
sg2
(Vhttp://dbpedia.org/ontology/bibsysId
tRp146
I212
sg2
(Vhttp://dbpedia.org/ontology/orderInOffice
tRp147
I195
sg2
(Vhttp://dbpedia.org/ontology/personFunction
tRp148
I151
sg2
(Vhttp://xmlns.com/foaf/0.1/surname
tRp149
I3
sg2
(Vhttp://dbpedia.org/ontology/lake
tRp150
I230
sg2
(Vhttp://dbpedia.org/ontology/areaUrban
tRp151
I146
sg2
(Vhttp://dbpedia.org/ontology/PopulatedPlace/populationUrbanDensity
tRp152
I48
sg2
(Vhttp://www.w3.org/2004/02/skos/core#subject
tRp153
I80
sg2
(Vhttp://dbpedia.org/ontology/twinTown
tRp154
I45
sg2
(Vhttp://dbpedia.org/ontology/populationUrbanDensity
tRp155
I144
sg2
(Vhttp://dbpedia.org/ontology/serviceStartYear
tRp156
I139
sg2
(Vhttp://yago-knowledge.org/resource/owns
tRp157
I65
sg2
(Vhttp://yago-knowledge.org/resource/isAffiliatedTo
tRp158
I20
sg2
(Vhttp://dbpedia.org/ontology/associatedBand
tRp159
I110
sg2
(Vhttp://dbpedia.org/ontology/award
tRp160
I114
sg2
(Vhttp://dbpedia.org/ontology/deputy
tRp161
I179
sg2
(Vhttp://dbpedia.org/ontology/doctoralStudent
tRp162
I154
sg2
(Vhttp://dbpedia.org/ontology/governingBody
tRp163
I116
sg2
(Vhttp://dbpedia.org/ontology/activeYearsStartDate
tRp164
I101
sg2
(Vhttp://dbpedia.org/ontology/primeMinister
tRp165
I134
sg2
(Vhttp://yago-knowledge.org/resource/hasNumberOfPeople
tRp166
I40
sg2
(Vhttp://yago-knowledge.org/resource/hasInflation
tRp167
I93
sg2
(Vhttp://dbpedia.org/ontology/lieutenancyArea
tRp168
I36
sg2
(Vhttp://dbpedia.org/ontology/foundingYear
tRp169
I124
sg2
(Vhttp://dbpedia.org/ontology/relation
tRp170
I196
sg2
(Vhttp://dbpedia.org/ontology/ethnicity
tRp171
I131
sg2
(Vhttp://dbpedia.org/ontology/flag
tRp172
I69
sg2
(Vhttp://dbpedia.org/ontology/child
tRp173
I49
sg2
(Vhttp://dbpedia.org/ontology/PopulatedPlace/areaMetro
tRp174
I107
sg2
(Vhttp://dbpedia.org/ontology/crownDependency
tRp175
I211
sg2
(Vhttp://dbpedia.org/ontology/president
tRp176
I160
sg2
(Vhttp://dbpedia.org/ontology/canonizedBy
tRp177
I213
sg2
(Vhttp://dbpedia.org/ontology/crosses
tRp178
I225
sg2
(Vhttp://dbpedia.org/ontology/position
tRp179
I7
sg2
(Vhttp://dbpedia.org/ontology/draftTeam
tRp180
I149
sg2
(Vhttp://yago-knowledge.org/resource/hasEconomicGrowth
tRp181
I189
sg2
(Vhttp://dbpedia.org/ontology/throwingSide
tRp182
I186
sg2
(Vhttp://dbpedia.org/ontology/highschool
tRp183
I201
sg2
(Vhttp://dbpedia.org/ontology/metropolitanBorough
tRp184
I47
sg2
(Vhttp://dbpedia.org/ontology/deathYear
tRp185
I39
sg2
(Vhttp://yago-knowledge.org/resource/isPreferredMeaningOf
tRp186
I11
sg2
(Vhttp://dbpedia.org/ontology/height
tRp187
I9
sg2
(Vhttp://dbpedia.org/ontology/monarch
tRp188
I182
sg2
(Vhttp://dbpedia.org/ontology/notableStudent
tRp189
I193
sg2
(Vhttp://dbpedia.org/ontology/governorGeneral
tRp190
I224
sg2
(Vhttp://dbpedia.org/ontology/influencedBy
tRp191
I83
sg2
(Vhttp://dbpedia.org/ontology/creator
tRp192
I147
sg2
(Vhttp://dbpedia.org/ontology/debutTeam
tRp193
I138
sg2
(Vhttp://dbpedia.org/ontology/battingSide
tRp194
I228
sg2
(Vhttp://dbpedia.org/ontology/maintainedBy
tRp195
I216
sg2
(Vhttp://dbpedia.org/ontology/distanceToBelfast
tRp196
I173
sg2
(Vhttp://dbpedia.org/ontology/team
tRp197
I13
sg2
(Vhttp://dbpedia.org/ontology/university
tRp198
I88
sg2
(Vhttp://dbpedia.org/ontology/architect
tRp199
I191
sg2
(Vhttp://dbpedia.org/ontology/PopulatedPlace/populationDensity
tRp200
I15
sg2
(Vhttp://dbpedia.org/ontology/office
tRp201
I183
sg2
(Vhttp://dbpedia.org/ontology/militaryBranch
tRp202
I117
sg2
(Vhttp://dbpedia.org/ontology/battle
tRp203
I120
sg2
(Vhttp://dbpedia.org/ontology/dissolutionDate
tRp204
I194
sg2
(Vhttp://dbpedia.org/ontology/PopulatedPlace/areaUrban
tRp205
I98
sg2
(Vhttp://dbpedia.org/ontology/distanceToCharingCross
tRp206
I52
sg2
(Vhttp://dbpedia.org/ontology/institution
tRp207
I184
sg2
(Vhttp://dbpedia.org/ontology/buildingStartYear
tRp208
I190
sg2
(Vhttp://dbpedia.org/ontology/builder
tRp209
I135
sg2
(Vhttp://dbpedia.org/ontology/almaMater
tRp210
I85
sg2
(Vhttp://dbpedia.org/ontology/careerStation
tRp211
I17
sg2
(Vhttp://dbpedia.org/ontology/status
tRp212
I181
sg2
(Vhttp://dbpedia.org/ontology/firstAppearance
tRp213
I105
sg2
(Vhttp://dbpedia.org/ontology/formerCoach
tRp214
I140
sg2
(Vhttp://dbpedia.org/ontology/largestCity
tRp215
I199
sg2
(Vhttp://dbpedia.org/ontology/title
tRp216
I176
sg2
(Vhttp://dbpedia.org/ontology/lieutenant
tRp217
I133
sg2
(Vhttp://dbpedia.org/ontology/sport
tRp218
I53
sg2
(Vhttp://dbpedia.org/ontology/militaryRank
tRp219
I206
sg2
(Vhttp://dbpedia.org/ontology/occupation
tRp220
I29
sg2
(Vhttp://dbpedia.org/ontology/field
tRp221
I99
sg2
(Vhttp://dbpedia.org/ontology/Person/height
tRp222
I21
sg2
(Vhttp://dbpedia.org/ontology/portrayer
tRp223
I188
sg2
(Vhttp://dbpedia.org/ontology/day
tRp224
I204
sg2
(Vhttp://dbpedia.org/ontology/ethnicGroupsInYear
tRp225
I59
sg2
(Vhttp://dbpedia.org/ontology/leader
tRp226
I68
sg2
(Vhttp://dbpedia.org/ontology/canton
tRp227
I208
sg2
(Vhttp://dbpedia.org/ontology/length
tRp228
I171
sg2
(Vhttp://dbpedia.org/ontology/deathDate
tRp229
I22
sg2
(Vhttp://www.w3.org/2000/01/rdf-schema#label
tRp230
I1
sg2
(Vhttp://dbpedia.org/ontology/dissolutionYear
tRp231
I137
sg2
(Vhttp://dbpedia.org/ontology/language
tRp232
I55
sg2
(Vhttp://dbpedia.org/ontology/doctoralAdvisor
tRp233
I115
s.